; Function Attrs: mustprogress uwtable
define hidden void @_ZN2cv3dnn16getCanonicalSizeERKSt6vectorIiSaIiEEPiS6_S6_S6_(ptr nocapture noundef nonnull readonly align 8 dereferenceable(24) %0, ptr nocapture noundef writeonly %1, ptr nocapture noundef writeonly %2, ptr nocapture noundef writeonly %3, ptr nocapture noundef writeonly %4) local_unnamed_addr #3 personality ptr @__gxx_personality_v0 {
  %6 = alloca %"class.std::__cxx11::basic_string", align 8
  %7 = alloca %"class.std::allocator", align 1
  %8 = getelementptr inbounds i8, ptr %0, i64 8
  %9 = load ptr, ptr %8, align 8
  %10 = load ptr, ptr %0, align 8
  %11 = ptrtoint ptr %9 to i64
  %12 = ptrtoint ptr %10 to i64
  %13 = sub i64 %11, %12
  %14 = lshr exact i64 %13, 2
  %15 = trunc i64 %14 to i32
  switch i32 %15, label %16 [
    i32 4, label %24
    i32 2, label %24
  ]

16:                                               ; preds = %5
  call void @_ZNSaIcEC1Ev(ptr noundef nonnull align 1 dereferenceable(1) %7) #16
  invoke void @_ZNSt7__cxx1112basic_stringIcSt11char_traitsIcESaIcEEC1EPKcRKS3_(ptr noundef nonnull align 8 dereferenceable(32) %6, ptr noundef nonnull @.str, ptr noundef nonnull align 1 dereferenceable(1) %7)
          to label %17 unwind label %19

17:                                               ; preds = %16
  invoke void @_ZN2cv5errorEiRKNSt7__cxx1112basic_stringIcSt11char_traitsIcESaIcEEEPKcS9_i(i32 noundef -215, ptr noundef nonnull align 8 dereferenceable(32) %6, ptr noundef nonnull @__func__._ZN2cv3dnn16getCanonicalSizeERKSt6vectorIiSaIiEEPiS6_S6_S6_, ptr noundef nonnull @.str.1, i32 noundef 292) #13
          to label %18 unwind label %21

18:                                               ; preds = %17
  unreachable

19:                                               ; preds = %16
  %20 = landingpad { ptr, i32 }
          cleanup
  br label %23

21:                                               ; preds = %17
  %22 = landingpad { ptr, i32 }
          cleanup
  call void @_ZNSt7__cxx1112basic_stringIcSt11char_traitsIcESaIcEED1Ev(ptr noundef nonnull align 8 dereferenceable(32) %6) #16
  br label %23

23:                                               ; preds = %21, %19
  %.pn = phi { ptr, i32 } [ %22, %21 ], [ %20, %19 ]
  call void @_ZNSaIcED1Ev(ptr noundef nonnull align 1 dereferenceable(1) %7) #16
  resume { ptr, i32 } %.pn

24:                                               ; preds = %5, %5
  %25 = icmp eq i32 %15, 4
  %26 = load i32, ptr %10, align 4
  store i32 %26, ptr %4, align 4
  %27 = load ptr, ptr %0, align 8
  %28 = getelementptr inbounds i8, ptr %27, i64 4
  %29 = load i32, ptr %28, align 4
  store i32 %29, ptr %3, align 4
  br i1 %25, label %30, label %37

30:                                               ; preds = %24
  %31 = load ptr, ptr %0, align 8
  %32 = getelementptr inbounds i8, ptr %31, i64 12
  %33 = load i32, ptr %32, align 4
  store i32 %33, ptr %1, align 4
  %34 = load ptr, ptr %0, align 8
  %35 = getelementptr inbounds i8, ptr %34, i64 8
  %36 = load i32, ptr %35, align 4
  br label %38

37:                                               ; preds = %24
  store i32 1, ptr %1, align 4
  br label %38

38:                                               ; preds = %37, %30
  %storemerge = phi i32 [ 1, %37 ], [ %36, %30 ]
  store i32 %storemerge, ptr %2, align 4
  ret void
}